; ModuleID = 'source-C-CXX/36/593.c'
source_filename = "source-C-CXX/36/593.c"
target datalayout = "e-m:e-p270:32:32-p271:32:32-p272:64:64-i64:64-f80:128-n8:16:32:64-S128"
target triple = "x86_64-pc-linux-gnu"

%struct._IO_FILE = type { i32, i8*, i8*, i8*, i8*, i8*, i8*, i8*, i8*, i8*, i8*, i8*, %struct._IO_marker*, %struct._IO_FILE*, i32, i32, i64, i16, i8, [1 x i8], i8*, i64, %struct._IO_codecvt*, %struct._IO_wide_data*, %struct._IO_FILE*, i8*, i64, i32, [20 x i8] }
%struct._IO_marker = type opaque
%struct._IO_codecvt = type opaque
%struct._IO_wide_data = type opaque

@.str = private unnamed_addr constant [3 x i8] c"%d\00", align 1
@.str.2 = private unnamed_addr constant [4 x i8] c"%c\0A\00", align 1
@stdin = external local_unnamed_addr global %struct._IO_FILE*, align 8
@str = private unnamed_addr constant [3 x i8] c"no\00", align 1

; Function Attrs: nounwind sspstrong uwtable
define dso_local i32 @main() local_unnamed_addr #0 {
  %1 = alloca i32, align 4
  %2 = alloca [100000 x i8], align 16
  %3 = alloca [100 x i8], align 16
  %4 = bitcast i32* %1 to i8*
  call void @llvm.lifetime.start.p0i8(i64 4, i8* nonnull %4) #7
  %5 = getelementptr inbounds [100000 x i8], [100000 x i8]* %2, i64 0, i64 0
  call void @llvm.lifetime.start.p0i8(i64 100000, i8* nonnull %5) #7
  call void @llvm.memset.p0i8.i64(i8* noundef nonnull align 16 dereferenceable(100000) %5, i8 0, i64 100000, i1 false)
  %6 = getelementptr inbounds [100 x i8], [100 x i8]* %3, i64 0, i64 0
  call void @llvm.lifetime.start.p0i8(i64 100, i8* nonnull %6) #7
  call void @llvm.memset.p0i8.i64(i8* noundef nonnull align 16 dereferenceable(100) %6, i8 0, i64 100, i1 false)
  %7 = call i32 (i8*, ...) @__isoc99_scanf(i8* getelementptr inbounds ([3 x i8], [3 x i8]* @.str, i64 0, i64 0), i32* nonnull %1)
  %8 = load %struct._IO_FILE*, %struct._IO_FILE** @stdin, align 8, !tbaa !5
  %9 = call i32 @getc(%struct._IO_FILE* %8) #7
  %10 = load i32, i32* %1, align 4, !tbaa !9
  %11 = icmp sgt i32 %10, 0
  br i1 %11, label %14, label %67

12:                                               ; preds = %47
  %13 = icmp sgt i32 %49, 0
  br i1 %13, label %52, label %67

14:                                               ; preds = %0, %47
  %15 = phi i64 [ %48, %47 ], [ 0, %0 ]
  %16 = call i32 (i8*, ...) bitcast (i32 (...)* @gets to i32 (i8*, ...)*)(i8* nonnull %5) #7
  %17 = load i8, i8* %5, align 16, !tbaa !11
  %18 = icmp eq i8 %17, 0
  br i1 %18, label %47, label %19

19:                                               ; preds = %14
  %20 = call i64 @strlen(i8* noundef nonnull %5) #8
  %21 = icmp eq i64 %20, 0
  br i1 %21, label %44, label %22

22:                                               ; preds = %19, %40
  %23 = phi i64 [ %36, %40 ], [ 0, %19 ]
  %24 = phi i8 [ %42, %40 ], [ %17, %19 ]
  br label %25

25:                                               ; preds = %22, %37
  %26 = phi i64 [ 0, %22 ], [ %38, %37 ]
  %27 = getelementptr inbounds [100000 x i8], [100000 x i8]* %2, i64 0, i64 %26
  %28 = load i8, i8* %27, align 1, !tbaa !11
  %29 = icmp ne i8 %28, %24
  %30 = icmp eq i64 %26, %23
  %31 = select i1 %29, i1 true, i1 %30
  br i1 %31, label %37, label %32

32:                                               ; preds = %37, %25
  %33 = phi i64 [ %26, %25 ], [ %20, %37 ]
  %34 = and i64 %33, 4294967295
  %35 = icmp eq i64 %20, %34
  %36 = add nuw i64 %23, 1
  br i1 %35, label %44, label %40

37:                                               ; preds = %25
  %38 = add nuw i64 %26, 1
  %39 = icmp eq i64 %38, %20
  br i1 %39, label %32, label %25, !llvm.loop !12

40:                                               ; preds = %32
  %41 = getelementptr inbounds [100000 x i8], [100000 x i8]* %2, i64 0, i64 %36
  %42 = load i8, i8* %41, align 1, !tbaa !11
  %43 = icmp eq i8 %42, 0
  br i1 %43, label %47, label %22, !llvm.loop !14

44:                                               ; preds = %32, %19
  %45 = phi i8 [ %17, %19 ], [ %24, %32 ]
  %46 = getelementptr inbounds [100 x i8], [100 x i8]* %3, i64 0, i64 %15
  store i8 %45, i8* %46, align 1, !tbaa !11
  br label %47

47:                                               ; preds = %40, %14, %44
  %48 = add nuw nsw i64 %15, 1
  %49 = load i32, i32* %1, align 4, !tbaa !9
  %50 = sext i32 %49 to i64
  %51 = icmp slt i64 %48, %50
  br i1 %51, label %14, label %12, !llvm.loop !15

52:                                               ; preds = %12, %62
  %53 = phi i64 [ %63, %62 ], [ 0, %12 ]
  %54 = getelementptr inbounds [100 x i8], [100 x i8]* %3, i64 0, i64 %53
  %55 = load i8, i8* %54, align 1, !tbaa !11
  %56 = icmp eq i8 %55, 0
  br i1 %56, label %57, label %59

57:                                               ; preds = %52
  %58 = call i32 @puts(i8* nonnull dereferenceable(1) getelementptr inbounds ([3 x i8], [3 x i8]* @str, i64 0, i64 0))
  br label %62

59:                                               ; preds = %52
  %60 = sext i8 %55 to i32
  %61 = call i32 (i8*, ...) @printf(i8* nonnull dereferenceable(1) getelementptr inbounds ([4 x i8], [4 x i8]* @.str.2, i64 0, i64 0), i32 %60)
  br label %62

62:                                               ; preds = %57, %59
  %63 = add nuw nsw i64 %53, 1
  %64 = load i32, i32* %1, align 4, !tbaa !9
  %65 = sext i32 %64 to i64
  %66 = icmp slt i64 %63, %65
  br i1 %66, label %52, label %67, !llvm.loop !16

67:                                               ; preds = %62, %0, %12
  call void @llvm.lifetime.end.p0i8(i64 100, i8* nonnull %6) #7
  call void @llvm.lifetime.end.p0i8(i64 100000, i8* nonnull %5) #7
  call void @llvm.lifetime.end.p0i8(i64 4, i8* nonnull %4) #7
  ret i32 0
}

; Function Attrs: argmemonly mustprogress nofree nosync nounwind willreturn
declare void @llvm.lifetime.start.p0i8(i64 immarg, i8* nocapture) #1

; Function Attrs: argmemonly mustprogress nofree nounwind willreturn writeonly
declare void @llvm.memset.p0i8.i64(i8* nocapture writeonly, i8, i64, i1 immarg) #2

; Function Attrs: nofree nounwind
declare noundef i32 @__isoc99_scanf(i8* nocapture noundef readonly, ...) local_unnamed_addr #3

declare i32 @gets(...) local_unnamed_addr #4

; Function Attrs: argmemonly mustprogress nofree nounwind readonly willreturn
declare i64 @strlen(i8* nocapture) local_unnamed_addr #5

; Function Attrs: nofree nounwind
declare noundef i32 @printf(i8* nocapture noundef readonly, ...) local_unnamed_addr #3

; Function Attrs: argmemonly mustprogress nofree nosync nounwind willreturn
declare void @llvm.lifetime.end.p0i8(i64 immarg, i8* nocapture) #1

; Function Attrs: nofree nounwind
declare noundef i32 @getc(%struct._IO_FILE* nocapture noundef) local_unnamed_addr #3

; Function Attrs: nofree nounwind
declare noundef i32 @puts(i8* nocapture noundef readonly) local_unnamed_addr #6


!llvm.module.flags = !{!0, !1, !2, !3}
!llvm.ident = !{!4}

!0 = !{i32 1, !"wchar_size", i32 4}
!1 = !{i32 7, !"PIC Level", i32 2}
!2 = !{i32 7, !"PIE Level", i32 2}
!3 = !{i32 7, !"uwtable", i32 1}
!4 = !{!"clang version 13.0.0"}
!5 = !{!6, !6, i64 0}
!6 = !{!"any pointer", !7, i64 0}
!7 = !{!"omnipotent char", !8, i64 0}
!8 = !{!"Simple C/C++ TBAA"}
!9 = !{!10, !10, i64 0}
!10 = !{!"int", !7, i64 0}
!11 = !{!7, !7, i64 0}
!12 = distinct !{!12, !13}
!13 = !{!"llvm.loop.mustprogress"}
!14 = distinct !{!14, !13}
!15 = distinct !{!15, !13}
!16 = distinct !{!16, !13}
